target datalayout = "e-m:e-p270:32:32-p271:32:32-p272:64:64-i64:64-i128:128-f80:128-n8:16:32:64-S128"
target triple = "x86_64-pc-linux-gnu"

%struct._value_string = type { i32, ptr }
%struct.reassembly_table = type { ptr, ptr, ptr, ptr, ptr }
%struct.reassembly_table_functions = type { ptr, ptr, ptr, ptr, ptr, ptr }
%struct.raknet_handler_entry = type { %struct._value_string, ptr }

@raknet_handle = internal global ptr null, align 8
@.str.1 = private unnamed_addr constant [12 x i8] c"raknet.port\00", align 1
@.str.3 = private unnamed_addr constant [26 x i8] c"raknet.offline.message.id\00", align 1
@raknet_offline_message_names = internal global [15 x %struct._value_string] zeroinitializer, align 16
@.str.104 = private unnamed_addr constant [25 x i8] c"raknet.system.message.id\00", align 1
@raknet_system_message_names = internal global [6 x %struct._value_string] zeroinitializer, align 16
@.str.145 = private unnamed_addr constant [32 x i8] c"RakNet game networking protocol\00", align 1
@.str.146 = private unnamed_addr constant [7 x i8] c"RakNet\00", align 1
@.str.147 = private unnamed_addr constant [7 x i8] c"raknet\00", align 1
@proto_raknet = internal global i32 0, align 4
@raknet_reassembly_table = internal global %struct.reassembly_table zeroinitializer, align 8
@addresses_ports_reassembly_table_functions = external constant %struct.reassembly_table_functions, align 8
@.str.148 = private unnamed_addr constant [24 x i8] c"RakNet offline messages\00", align 1
@raknet_offline_message_dissectors = internal global ptr null, align 8
@.str.149 = private unnamed_addr constant [23 x i8] c"RakNet system messages\00", align 1
@raknet_system_message_dissectors = internal global ptr null, align 8
@.str.150 = private unnamed_addr constant [36 x i8] c"Port for protocols on top of RakNet\00", align 1
@raknet_port_dissectors = internal global ptr null, align 8
@.str.151 = private unnamed_addr constant [16 x i8] c"RakNet fallback\00", align 1
@raknet_heur_subdissectors = internal global ptr null, align 8

; Function Attrs: nounwind null_pointer_is_valid sspstrong uwtable
define internal void @raknet_init_message_names() #3 {
  %1 = alloca i32, align 4
  call void @llvm.lifetime.start.p0(i64 4, ptr %1) #6
  store i32 0, ptr %1, align 4
  br label %2

2:                                                ; preds = %27, %0
  %3 = load i32, ptr %1, align 4
  %4 = zext i32 %3 to i64
  %5 = icmp ult i64 %4, 14
  br i1 %5, label %6, label %30

6:                                                ; preds = %2
  %7 = load i32, ptr %1, align 4
  %8 = zext i32 %7 to i64
  %9 = getelementptr [14 x %struct.raknet_handler_entry], ptr @raknet_offline_message_handlers, i64 0, i64 %8
  %10 = getelementptr inbounds nuw %struct.raknet_handler_entry, ptr %9, i32 0, i32 0
  %11 = getelementptr inbounds nuw %struct._value_string, ptr %10, i32 0, i32 0
  %12 = load i32, ptr %11, align 8
  %13 = load i32, ptr %1, align 4
  %14 = zext i32 %13 to i64
  %15 = getelementptr [15 x %struct._value_string], ptr @raknet_offline_message_names, i64 0, i64 %14
  %16 = getelementptr inbounds nuw %struct._value_string, ptr %15, i32 0, i32 0
  store i32 %12, ptr %16, align 16
  %17 = load i32, ptr %1, align 4
  %18 = zext i32 %17 to i64
  %19 = getelementptr [14 x %struct.raknet_handler_entry], ptr @raknet_offline_message_handlers, i64 0, i64 %18
  %20 = getelementptr inbounds nuw %struct.raknet_handler_entry, ptr %19, i32 0, i32 0
  %21 = getelementptr inbounds nuw %struct._value_string, ptr %20, i32 0, i32 1
  %22 = load ptr, ptr %21, align 8
  %23 = load i32, ptr %1, align 4
  %24 = zext i32 %23 to i64
  %25 = getelementptr [15 x %struct._value_string], ptr @raknet_offline_message_names, i64 0, i64 %24
  %26 = getelementptr inbounds nuw %struct._value_string, ptr %25, i32 0, i32 1
  store ptr %22, ptr %26, align 8
  br label %27

27:                                               ; preds = %6
  %28 = load i32, ptr %1, align 4
  %29 = add i32 %28, 1
  store i32 %29, ptr %1, align 4
  br label %2, !llvm.loop !6

30:                                               ; preds = %2
  store i32 0, ptr getelementptr ([15 x %struct._value_string], ptr @raknet_offline_message_names, i64 0, i64 14), align 16
  store ptr null, ptr getelementptr inbounds nuw (%struct._value_string, ptr getelementptr ([15 x %struct._value_string], ptr @raknet_offline_message_names, i64 0, i64 14), i32 0, i32 1), align 8
  store i32 0, ptr %1, align 4
  br label %31

31:                                               ; preds = %56, %30
  %32 = load i32, ptr %1, align 4
  %33 = zext i32 %32 to i64
  %34 = icmp ult i64 %33, 5
  br i1 %34, label %35, label %59

35:                                               ; preds = %31
  %36 = load i32, ptr %1, align 4
  %37 = zext i32 %36 to i64
  %38 = getelementptr [5 x %struct.raknet_handler_entry], ptr @raknet_system_message_handlers, i64 0, i64 %37
  %39 = getelementptr inbounds nuw %struct.raknet_handler_entry, ptr %38, i32 0, i32 0
  %40 = getelementptr inbounds nuw %struct._value_string, ptr %39, i32 0, i32 0
  %41 = load i32, ptr %40, align 8
  %42 = load i32, ptr %1, align 4
  %43 = zext i32 %42 to i64
  %44 = getelementptr [6 x %struct._value_string], ptr @raknet_system_message_names, i64 0, i64 %43
  %45 = getelementptr inbounds nuw %struct._value_string, ptr %44, i32 0, i32 0
  store i32 %41, ptr %45, align 16
  %46 = load i32, ptr %1, align 4
  %47 = zext i32 %46 to i64
  %48 = getelementptr [5 x %struct.raknet_handler_entry], ptr @raknet_system_message_handlers, i64 0, i64 %47
  %49 = getelementptr inbounds nuw %struct.raknet_handler_entry, ptr %48, i32 0, i32 0
  %50 = getelementptr inbounds nuw %struct._value_string, ptr %49, i32 0, i32 1
  %51 = load ptr, ptr %50, align 8
  %52 = load i32, ptr %1, align 4
  %53 = zext i32 %52 to i64
  %54 = getelementptr [6 x %struct._value_string], ptr @raknet_system_message_names, i64 0, i64 %53
  %55 = getelementptr inbounds nuw %struct._value_string, ptr %54, i32 0, i32 1
  store ptr %51, ptr %55, align 8
  br label %56

56:                                               ; preds = %35
  %57 = load i32, ptr %1, align 4
  %58 = add i32 %57, 1
  store i32 %58, ptr %1, align 4
  br label %31, !llvm.loop !8

59:                                               ; preds = %31
  store i32 0, ptr getelementptr ([6 x %struct._value_string], ptr @raknet_system_message_names, i64 0, i64 5), align 16
  store ptr null, ptr getelementptr inbounds nuw (%struct._value_string, ptr getelementptr ([6 x %struct._value_string], ptr @raknet_system_message_names, i64 0, i64 5), i32 0, i32 1), align 8
  call void @llvm.lifetime.end.p0(i64 4, ptr %1) #6
  ret void
}

; Function Attrs: null_pointer_is_valid sspstrong uwtable
define hidden void @proto_register_raknet() #0 {
  %1 = alloca ptr, align 8
  call void @llvm.lifetime.start.p0(i64 8, ptr %1) #6
  call void @raknet_init_message_names()
  %2 = call i32 @proto_register_protocol(ptr noundef @.str.145, ptr noundef @.str.146, ptr noundef @.str.147)
  store i32 %2, ptr @proto_raknet, align 4
  %3 = load i32, ptr @proto_raknet, align 4
  %4 = call ptr @expert_register_protocol(i32 noundef %3)
  store ptr %4, ptr %1, align 8
  %5 = load ptr, ptr %1, align 8
  call void @expert_register_field_array(ptr noundef %5, ptr noundef @proto_register_raknet.ei, i32 noundef 4)
  %6 = load i32, ptr @proto_raknet, align 4
  call void @proto_register_field_array(i32 noundef %6, ptr noundef @proto_register_raknet.hf, i32 noundef 68)
  call void @proto_register_subtree_array(ptr noundef @proto_register_raknet.ett, i32 noundef 9)
  call void @reassembly_table_register(ptr noundef @raknet_reassembly_table, ptr noundef @addresses_ports_reassembly_table_functions)
  %7 = load i32, ptr @proto_raknet, align 4
  %8 = call ptr @register_dissector(ptr noundef @.str.147, ptr noundef @dissect_raknet, i32 noundef %7)
  store ptr %8, ptr @raknet_handle, align 8
  %9 = load i32, ptr @proto_raknet, align 4
  %10 = call ptr @register_dissector_table(ptr noundef @.str.3, ptr noundef @.str.148, i32 noundef %9, i32 noundef 4, i32 noundef 2)
  store ptr %10, ptr @raknet_offline_message_dissectors, align 8
  %11 = load i32, ptr @proto_raknet, align 4
  %12 = call ptr @register_dissector_table(ptr noundef @.str.104, ptr noundef @.str.149, i32 noundef %11, i32 noundef 4, i32 noundef 2)
  store ptr %12, ptr @raknet_system_message_dissectors, align 8
  %13 = load i32, ptr @proto_raknet, align 4
  %14 = call ptr @register_dissector_table(ptr noundef @.str.1, ptr noundef @.str.150, i32 noundef %13, i32 noundef 5, i32 noundef 1)
  store ptr %14, ptr @raknet_port_dissectors, align 8
  %15 = load i32, ptr @proto_raknet, align 4
  %16 = call ptr @register_heur_dissector_list_with_description(ptr noundef @.str.147, ptr noundef @.str.151, i32 noundef %15)
  store ptr %16, ptr @raknet_heur_subdissectors, align 8
  call void @llvm.lifetime.end.p0(i64 8, ptr %1) #6
  ret void
}