; Function Attrs: null_pointer_is_valid sspstrong uwtable
define hidden void @proto_register_raknet() local_unnamed_addr #0 {
  br label %1

1:                                                ; preds = %1, %0
  %indvars.iv.i = phi i64 [ 0, %0 ], [ %indvars.iv.next.i, %1 ]
  %2 = getelementptr [14 x %struct.raknet_handler_entry], ptr @raknet_offline_message_handlers, i64 0, i64 %indvars.iv.i
  %3 = load i32, ptr %2, align 8
  %4 = getelementptr [15 x %struct._value_string], ptr @raknet_offline_message_names, i64 0, i64 %indvars.iv.i
  store i32 %3, ptr %4, align 16
  %5 = getelementptr inbounds nuw i8, ptr %2, i64 8
  %6 = load ptr, ptr %5, align 8
  %7 = getelementptr inbounds nuw i8, ptr %4, i64 8
  store ptr %6, ptr %7, align 8
  %indvars.iv.next.i = add nuw nsw i64 %indvars.iv.i, 1
  %exitcond.not.i = icmp eq i64 %indvars.iv.next.i, 14
  br i1 %exitcond.not.i, label %8, label %1, !llvm.loop !6

8:                                                ; preds = %1
  store i32 0, ptr getelementptr inbounds nuw (i8, ptr @raknet_offline_message_names, i64 224), align 16
  store ptr null, ptr getelementptr inbounds nuw (i8, ptr @raknet_offline_message_names, i64 232), align 8
  br label %9

9:                                                ; preds = %9, %8
  %indvars.iv17.i = phi i64 [ 0, %8 ], [ %indvars.iv.next18.i, %9 ]
  %10 = getelementptr [5 x %struct.raknet_handler_entry], ptr @raknet_system_message_handlers, i64 0, i64 %indvars.iv17.i
  %11 = load i32, ptr %10, align 8
  %12 = getelementptr [6 x %struct._value_string], ptr @raknet_system_message_names, i64 0, i64 %indvars.iv17.i
  store i32 %11, ptr %12, align 16
  %13 = getelementptr inbounds nuw i8, ptr %10, i64 8
  %14 = load ptr, ptr %13, align 8
  %15 = getelementptr inbounds nuw i8, ptr %12, i64 8
  store ptr %14, ptr %15, align 8
  %indvars.iv.next18.i = add nuw nsw i64 %indvars.iv17.i, 1
  %exitcond20.not.i = icmp eq i64 %indvars.iv.next18.i, 5
  br i1 %exitcond20.not.i, label %raknet_init_message_names.exit, label %9, !llvm.loop !8

raknet_init_message_names.exit:                   ; preds = %9
  store i32 0, ptr getelementptr inbounds nuw (i8, ptr @raknet_system_message_names, i64 80), align 16
  store ptr null, ptr getelementptr inbounds nuw (i8, ptr @raknet_system_message_names, i64 88), align 8
  %16 = tail call i32 @proto_register_protocol(ptr noundef nonnull @.str.145, ptr noundef nonnull @.str.146, ptr noundef nonnull @.str.147)
  store i32 %16, ptr @proto_raknet, align 4
  %17 = tail call ptr @expert_register_protocol(i32 noundef %16)
  tail call void @expert_register_field_array(ptr noundef %17, ptr noundef nonnull @proto_register_raknet.ei, i32 noundef 4)
  %18 = load i32, ptr @proto_raknet, align 4
  tail call void @proto_register_field_array(i32 noundef %18, ptr noundef nonnull @proto_register_raknet.hf, i32 noundef 68)
  tail call void @proto_register_subtree_array(ptr noundef nonnull @proto_register_raknet.ett, i32 noundef 9)
  tail call void @reassembly_table_register(ptr noundef nonnull @raknet_reassembly_table, ptr noundef nonnull @addresses_ports_reassembly_table_functions)
  %19 = load i32, ptr @proto_raknet, align 4
  %20 = tail call ptr @register_dissector(ptr noundef nonnull @.str.147, ptr noundef nonnull @dissect_raknet, i32 noundef %19)
  store ptr %20, ptr @raknet_handle, align 8
  %21 = load i32, ptr @proto_raknet, align 4
  %22 = tail call ptr @register_dissector_table(ptr noundef nonnull @.str.3, ptr noundef nonnull @.str.148, i32 noundef %21, i32 noundef 4, i32 noundef 2)
  store ptr %22, ptr @raknet_offline_message_dissectors, align 8
  %23 = load i32, ptr @proto_raknet, align 4
  %24 = tail call ptr @register_dissector_table(ptr noundef nonnull @.str.104, ptr noundef nonnull @.str.149, i32 noundef %23, i32 noundef 4, i32 noundef 2)
  store ptr %24, ptr @raknet_system_message_dissectors, align 8
  %25 = load i32, ptr @proto_raknet, align 4
  %26 = tail call ptr @register_dissector_table(ptr noundef nonnull @.str.1, ptr noundef nonnull @.str.150, i32 noundef %25, i32 noundef 5, i32 noundef 1)
  store ptr %26, ptr @raknet_port_dissectors, align 8
  %27 = load i32, ptr @proto_raknet, align 4
  %28 = tail call ptr @register_heur_dissector_list_with_description(ptr noundef nonnull @.str.147, ptr noundef nonnull @.str.151, i32 noundef %27)
  store ptr %28, ptr @raknet_heur_subdissectors, align 8
  ret void
}